; Function Attrs: nounwind uwtable
define internal fastcc i32 @ftp_state_user(ptr noundef %0, ptr noundef %1) unnamed_addr #0 {
  %3 = getelementptr inbounds nuw i8, ptr %1, i64 1088
  %4 = getelementptr inbounds nuw i8, ptr %1, i64 480
  %5 = load ptr, ptr %4, align 8, !tbaa !182
  %.not = icmp eq ptr %5, null
  %spec.select = select i1 %.not, ptr @.str.65, ptr %5
  %6 = tail call i32 (ptr, ptr, ptr, ...) @Curl_pp_sendf(ptr noundef %0, ptr noundef nonnull %3, ptr noundef nonnull @.str.70, ptr noundef nonnull %spec.select) #10
  %.not8 = icmp eq i32 %6, 0
  br i1 %.not8, label %7, label %35

7:                                                ; preds = %2
  %8 = getelementptr inbounds nuw i8, ptr %1, i64 1362
  %9 = load i8, ptr %8, align 2
  %10 = and i8 %9, -2
  store i8 %10, ptr %8, align 2
  %11 = getelementptr inbounds nuw i8, ptr %0, i64 24
  %12 = load ptr, ptr %11, align 8, !tbaa !105
  %13 = getelementptr inbounds nuw i8, ptr %12, i64 1358
  %14 = load i8, ptr %13, align 2, !tbaa !136
  %15 = icmp ne i8 %14, 3
  %16 = icmp ne ptr %0, null
  %or.cond4.i = and i1 %16, %15
  br i1 %or.cond4.i, label %17, label %_ftp_state.exit

17:                                               ; preds = %7
  %18 = getelementptr inbounds nuw i8, ptr %0, i64 2658
  %19 = load i64, ptr %18, align 2
  %20 = and i64 %19, 2147483648
  %.not.i = icmp eq i64 %20, 0
  br i1 %.not.i, label %_ftp_state.exit, label %21

21:                                               ; preds = %17
  %22 = getelementptr inbounds nuw i8, ptr %0, i64 4864
  %23 = load ptr, ptr %22, align 8, !tbaa !102
  %.not20.i = icmp eq ptr %23, null
  br i1 %.not20.i, label %30, label %24

24:                                               ; preds = %21
  %25 = getelementptr inbounds nuw i8, ptr %23, i64 8
  %26 = load i32, ptr %25, align 8, !tbaa !103
  %27 = icmp sgt i32 %26, 0
  %28 = load i32, ptr getelementptr inbounds nuw (i8, ptr @Curl_trc_feat_ftp, i64 8), align 8
  %29 = icmp sgt i32 %28, 0
  %or.cond.i = select i1 %27, i1 %29, i1 false
  br i1 %or.cond.i, label %31, label %_ftp_state.exit

30:                                               ; preds = %21
  %.old.i = load i32, ptr getelementptr inbounds nuw (i8, ptr @Curl_trc_feat_ftp, i64 8), align 8, !tbaa !103
  %.old1.i = icmp sgt i32 %.old.i, 0
  br i1 %.old1.i, label %31, label %_ftp_state.exit

31:                                               ; preds = %30, %24
  %32 = zext i8 %14 to i64
  %33 = getelementptr inbounds nuw [35 x ptr], ptr @ftp_state_names, i64 0, i64 %32
  %34 = load ptr, ptr %33, align 8, !tbaa !7
  tail call void (ptr, ptr, ...) @Curl_trc_ftp(ptr noundef nonnull %0, ptr noundef nonnull @.str.7, ptr noundef %34, ptr noundef nonnull @.str.12) #10
  br label %_ftp_state.exit

_ftp_state.exit:                                  ; preds = %7, %17, %24, %30, %31
  store i8 3, ptr %13, align 2, !tbaa !136
  br label %35

35:                                               ; preds = %_ftp_state.exit, %2
  ret i32 %6
}